Certificate:
    Data:
        Version: 3 (0x2)
        Serial Number: 1 (0x1)
    Signature Algorithm: sha256WithRSAEncryption
        Issuer: C=FR, ST=Radius, L=Somewhere, O=Example Inc./emailAddress=admin@example.org, CN=Example Certificate Authority
        Validity
            Not Before: Apr  9 21:48:37 2020 GMT
            Not After : Jun  8 21:48:37 2020 GMT
        Subject: C=FR, ST=Radius, O=Example Inc., CN=Example Server Certificate/emailAddress=admin@example.org
        Subject Public Key Info:
            Public Key Algorithm: rsaEncryption
                Public-Key: (2048 bit)
                Modulus:
                    00:c4:0f:cc:33:e7:9b:fb:52:95:26:41:87:a1:ec:
                    d3:dc:70:f9:45:e2:01:ca:6e:92:6f:fc:ce:75:3b:
                    7f:4f:d3:33:36:cc:57:0d:5a:b7:32:6c:4b:5e:8c:
                    5d:14:23:47:c7:ce:c3:fe:34:7a:b4:63:fc:c1:ea:
                    13:79:ef:6c:88:89:f7:3b:d4:52:d8:39:a8:84:8c:
                    4b:30:ee:9a:6b:ea:3b:c8:d8:94:0c:26:8b:1c:59:
                    7f:96:06:d7:67:6f:07:37:9b:e1:dd:25:b6:d3:97:
                    64:c3:96:12:05:da:d0:35:26:c7:a2:49:27:00:71:
                    e2:06:38:27:e1:47:1f:ca:e1:04:cb:43:9a:e4:08:
                    16:d3:c3:a8:52:24:fd:2f:7b:ff:7f:08:c2:54:a0:
                    c6:aa:1a:fb:ae:1a:59:85:ea:fd:55:a8:18:3a:34:
                    37:c0:cd:bd:7f:13:44:04:1f:b9:d9:2e:32:cb:a0:
                    76:71:35:69:be:9d:58:e0:43:fc:70:39:d4:4c:b8:
                    19:8b:e3:5e:04:c6:34:f7:0e:dc:32:19:f0:12:2a:
                    64:fb:40:b7:18:ba:78:a4:42:ec:8e:77:e5:94:8c:
                    67:a2:90:c8:66:fc:dd:95:d7:69:09:69:6f:bd:d6:
                    3d:65:12:fc:64:f3:a2:35:bb:4e:35:65:0a:75:6f:
                    74:c7
                Exponent: 65537 (0x10001)
        X509v3 extensions:
            X509v3 Extended Key Usage: 
                TLS Web Server Authentication
            X509v3 CRL Distribution Points: 

                Full Name:
                  URI:http://www.example.com/example_ca.crl

    Signature Algorithm: sha256WithRSAEncryption
         8d:15:0a:67:3c:80:7b:54:95:cd:27:02:f5:b9:34:f6:25:da:
         9a:9a:1a:c4:b8:3c:ff:bf:77:2a:9f:4f:a2:fa:05:47:1e:43:
         60:c8:83:13:27:f5:66:05:ba:29:39:ff:ec:c4:f1:60:e5:97:
         18:7f:9d:bd:91:cc:b8:8c:fa:ed:87:bf:3c:42:0d:2d:16:14:
         90:ac:72:5f:c5:7a:35:b6:63:d6:93:e8:c5:ef:ad:60:e6:92:
         ea:1a:fc:64:61:04:16:ba:33:ef:39:75:5f:ed:15:96:2a:12:
         46:9f:4a:e5:da:d6:b9:20:b9:ee:91:0f:fc:fa:f1:f3:a5:aa:
         dc:f1:b2:a4:8c:7d:2b:ae:1e:66:2c:89:5d:9d:ef:ae:5f:c9:
         79:ab:fe:30:8b:ac:05:47:70:0c:6b:82:36:f3:e8:3c:51:c8:
         99:65:5b:6d:00:bf:91:6d:34:a2:5e:04:4d:a8:b4:f0:f7:18:
         50:05:48:5a:9c:ff:22:17:5b:7f:c1:11:3b:e6:55:6a:aa:55:
         21:81:8f:7b:ed:f0:be:77:d6:9c:2c:51:75:40:03:94:02:78:
         65:3f:dd:1e:2d:10:1d:38:51:0c:e6:68:2f:a7:bd:71:19:1a:
         c8:fa:aa:4a:af:25:56:94:58:73:af:80:59:a2:70:09:cb:c1:
         5f:3b:89:1c
-----BEGIN CERTIFICATE-----
MIID2jCCAsKgAwIBAgIBATANBgkqhkiG9w0BAQsFADCBkzELMAkGA1UEBhMCRlIx
DzANBgNVBAgMBlJhZGl1czESMBAGA1UEBwwJU29tZXdoZXJlMRUwEwYDVQQKDAxF
eGFtcGxlIEluYy4xIDAeBgkqhkiG9w0BCQEWEWFkbWluQGV4YW1wbGUub3JnMSYw
JAYDVQQDDB1FeGFtcGxlIENlcnRpZmljYXRlIEF1dGhvcml0eTAeFw0yMDA0MDky
MTQ4MzdaFw0yMDA2MDgyMTQ4MzdaMHwxCzAJBgNVBAYTAkZSMQ8wDQYDVQQIDAZS
YWRpdXMxFTATBgNVBAoMDEV4YW1wbGUgSW5jLjEjMCEGA1UEAwwaRXhhbXBsZSBT
ZXJ2ZXIgQ2VydGlmaWNhdGUxIDAeBgkqhkiG9w0BCQEWEWFkbWluQGV4YW1wbGUu
b3JnMIIBIjANBgkqhkiG9w0BAQEFAAOCAQ8AMIIBCgKCAQEAxA/MM+eb+1KVJkGH
oezT3HD5ReIBym6Sb/zOdTt/T9MzNsxXDVq3MmxLXoxdFCNHx87D/jR6tGP8weoT
ee9siIn3O9RS2DmohIxLMO6aa+o7yNiUDCaLHFl/lgbXZ28HN5vh3SW205dkw5YS
BdrQNSbHokknAHHiBjgn4UcfyuEEy0Oa5AgW08OoUiT9L3v/fwjCVKDGqhr7rhpZ
her9VagYOjQ3wM29fxNEBB+52S4yy6B2cTVpvp1Y4EP8cDnUTLgZi+NeBMY09w7c
MhnwEipk+0C3GLp4pELsjnfllIxnopDIZvzdlddpCWlvvdY9ZRL8ZPOiNbtONWUK
dW90xwIDAQABo08wTTATBgNVHSUEDDAKBggrBgEFBQcDATA2BgNVHR8ELzAtMCug
KaAnhiVodHRwOi8vd3d3LmV4YW1wbGUuY29tL2V4YW1wbGVfY2EuY3JsMA0GCSqG
SIb3DQEBCwUAA4IBAQCNFQpnPIB7VJXNJwL1uTT2JdqamhrEuDz/v3cqn0+i+gVH
HkNgyIMTJ/VmBbopOf/sxPFg5ZcYf529kcy4jPrth788Qg0tFhSQrHJfxXo1tmPW
k+jF761g5pLqGvxkYQQWujPvOXVf7RWWKhJGn0rl2ta5ILnukQ/8+vHzparc8bKk
jH0rrh5mLIldne+uX8l5q/4wi6wFR3AMa4I28+g8UciZZVttAL+RbTSiXgRNqLTw
9xhQBUhanP8iF1t/wRE75lVqqlUhgY977fC+d9acLFF1QAOUAnhlP90eLRAdOFEM
5mgvp71xGRrI+qpKryVWlFhzr4BZonAJy8FfO4kc
-----END CERTIFICATE-----
