Certificate:
    Data:
        Version: 3 (0x2)
        Serial Number: 2 (0x2)
    Signature Algorithm: sha256WithRSAEncryption
        Issuer: C=FR, ST=Radius, L=Somewhere, O=Example Inc./emailAddress=admin@example.org, CN=Example Certificate Authority
        Validity
            Not Before: Apr  9 21:48:37 2020 GMT
            Not After : Jun  8 21:48:37 2020 GMT
        Subject: C=FR, ST=Radius, O=Example Inc., CN=user@example.org/emailAddress=user@example.org
        Subject Public Key Info:
            Public Key Algorithm: rsaEncryption
                Public-Key: (2048 bit)
                Modulus:
                    00:ef:85:c9:f1:6f:fb:fc:0a:c0:c0:8c:af:fd:f1:
                    c2:55:88:b7:c0:a1:21:90:61:e7:23:bd:74:9e:31:
                    2d:ad:53:14:81:ca:80:69:12:50:6d:b6:dc:62:bc:
                    5b:a7:6c:f9:4a:df:e0:08:b4:3a:f6:5f:61:ee:38:
                    12:f1:f6:d5:b3:08:56:3d:a2:1c:4c:c0:3b:ae:ac:
                    a3:6c:7e:9d:d4:ee:16:36:79:0a:ca:fd:6e:b9:46:
                    1e:a9:8f:79:c4:60:1f:87:86:e0:17:b8:bb:52:47:
                    55:ea:46:72:b5:67:ca:60:b3:c3:65:b9:c4:9e:49:
                    1f:8a:c9:6b:62:20:50:4d:62:64:25:bb:6a:78:b2:
                    51:bb:2a:54:c4:66:3e:b8:f3:1c:ae:05:af:2e:41:
                    7e:bc:50:47:ad:ad:6c:8d:6c:07:cf:8e:e5:4e:d8:
                    9c:eb:e4:ef:96:d2:d1:85:b5:67:78:b2:5e:dd:bb:
                    76:d6:5a:b7:5d:fc:43:c0:ec:61:b1:20:2f:17:c9:
                    3e:7b:93:fa:f3:8b:7b:1d:5b:a5:d6:d9:4d:59:8c:
                    cf:4b:25:07:10:18:a4:e0:1c:6b:bc:d5:7c:ec:6d:
                    28:af:0c:d5:ca:3e:ad:38:5d:2b:9e:fd:4d:b7:77:
                    cb:23:91:d6:a2:04:86:21:e6:b8:27:0a:fb:06:8f:
                    cf:91
                Exponent: 65537 (0x10001)
        X509v3 extensions:
            X509v3 Extended Key Usage: 
                TLS Web Client Authentication
            X509v3 CRL Distribution Points: 

                Full Name:
                  URI:http://www.example.com/example_ca.crl

    Signature Algorithm: sha256WithRSAEncryption
         92:75:24:5a:75:a7:a5:b8:67:06:07:8d:f3:9e:c1:1e:e1:71:
         13:66:9f:79:e3:eb:ce:66:dd:b5:9c:27:3a:1a:06:5d:80:b1:
         94:e0:f3:5f:f5:e2:d4:e8:64:54:98:29:90:5a:ec:06:40:e5:
         67:9d:48:7f:51:eb:3f:8b:2b:3c:00:3a:5c:3b:46:5b:b0:3e:
         74:9f:1c:2a:7c:dc:1c:e4:c0:60:ab:ee:94:7e:83:53:9d:1e:
         ed:37:b4:79:bd:a2:2c:ee:ae:7e:96:34:16:12:68:9c:28:03:
         04:04:e0:f8:b0:71:c1:40:32:e9:a7:c1:12:8e:bf:e2:f7:b3:
         14:b2:30:fb:9b:38:51:b8:6e:86:04:c2:a5:7a:ab:3a:e6:e2:
         47:e5:c9:ff:88:b0:6d:68:65:3b:50:85:e8:b1:cc:4e:18:10:
         2e:bf:69:a8:16:66:ef:e5:f5:df:84:40:cf:4d:0b:01:87:36:
         57:f7:72:96:5a:f5:0a:cb:37:89:bb:b4:d2:8e:89:ad:dd:75:
         25:a1:c1:12:79:a1:32:93:1b:50:bc:e9:95:7a:3d:f4:77:68:
         00:79:f8:05:db:8b:8c:d6:b2:25:ab:2d:cc:04:20:2b:98:be:
         84:35:ec:06:51:4e:eb:29:54:a2:59:15:f0:54:eb:b4:c9:d3:
         ac:b6:5a:ca
-----BEGIN CERTIFICATE-----
MIIDzzCCAregAwIBAgIBAjANBgkqhkiG9w0BAQsFADCBkzELMAkGA1UEBhMCRlIx
DzANBgNVBAgMBlJhZGl1czESMBAGA1UEBwwJU29tZXdoZXJlMRUwEwYDVQQKDAxF
eGFtcGxlIEluYy4xIDAeBgkqhkiG9w0BCQEWEWFkbWluQGV4YW1wbGUub3JnMSYw
JAYDVQQDDB1FeGFtcGxlIENlcnRpZmljYXRlIEF1dGhvcml0eTAeFw0yMDA0MDky
MTQ4MzdaFw0yMDA2MDgyMTQ4MzdaMHExCzAJBgNVBAYTAkZSMQ8wDQYDVQQIDAZS
YWRpdXMxFTATBgNVBAoMDEV4YW1wbGUgSW5jLjEZMBcGA1UEAwwQdXNlckBleGFt
cGxlLm9yZzEfMB0GCSqGSIb3DQEJARYQdXNlckBleGFtcGxlLm9yZzCCASIwDQYJ
KoZIhvcNAQEBBQADggEPADCCAQoCggEBAO+FyfFv+/wKwMCMr/3xwlWIt8ChIZBh
5yO9dJ4xLa1TFIHKgGkSUG223GK8W6ds+Urf4Ai0OvZfYe44EvH21bMIVj2iHEzA
O66so2x+ndTuFjZ5Csr9brlGHqmPecRgH4eG4Be4u1JHVepGcrVnymCzw2W5xJ5J
H4rJa2IgUE1iZCW7aniyUbsqVMRmPrjzHK4Fry5BfrxQR62tbI1sB8+O5U7YnOvk
75bS0YW1Z3iyXt27dtZat138Q8DsYbEgLxfJPnuT+vOLex1bpdbZTVmMz0slBxAY
pOAca7zVfOxtKK8M1co+rThdK579Tbd3yyOR1qIEhiHmuCcK+waPz5ECAwEAAaNP
ME0wEwYDVR0lBAwwCgYIKwYBBQUHAwIwNgYDVR0fBC8wLTAroCmgJ4YlaHR0cDov
L3d3dy5leGFtcGxlLmNvbS9leGFtcGxlX2NhLmNybDANBgkqhkiG9w0BAQsFAAOC
AQEAknUkWnWnpbhnBgeN857BHuFxE2afeePrzmbdtZwnOhoGXYCxlODzX/Xi1Ohk
VJgpkFrsBkDlZ51If1HrP4srPAA6XDtGW7A+dJ8cKnzcHOTAYKvulH6DU50e7Te0
eb2iLO6ufpY0FhJonCgDBATg+LBxwUAy6afBEo6/4vezFLIw+5s4UbhuhgTCpXqr
OubiR+XJ/4iwbWhlO1CF6LHMThgQLr9pqBZm7+X134RAz00LAYc2V/dyllr1Css3
ibu00o6Jrd11JaHBEnmhMpMbULzplXo99HdoAHn4BduLjNayJastzAQgK5i+hDXs
BlFO6ylUolkV8FTrtMnTrLZayg==
-----END CERTIFICATE-----
